target datalayout = "e-m:e-p270:32:32-p271:32:32-p272:64:64-i64:64-i128:128-f80:128-n8:16:32:64-S128"
target triple = "x86_64-unknown-linux-gnu"

%"class.dpx::Writer" = type { ptr, %"struct.dpx::Header", i64, ptr }
%"struct.dpx::Header" = type <{ %"struct.dpx::GenericHeader", %"struct.dpx::IndustryHeader", i8, [3 x i8] }>
%"struct.dpx::GenericHeader" = type { i32, i32, [8 x i8], i32, i32, i32, i32, i32, [100 x i8], [24 x i8], [100 x i8], [200 x i8], [200 x i8], i32, [104 x i8], i16, i16, i32, i32, [8 x %"struct.dpx::ImageElement"], [52 x i8], i32, i32, float, float, i32, i32, [100 x i8], [24 x i8], [32 x i8], [32 x i8], [4 x i16], [2 x i32], float, float, [20 x i8] }
%"struct.dpx::ImageElement" = type { i32, i32, float, i32, float, i8, i8, i8, i8, i16, i16, i32, i32, i32, [32 x i8] }
%"struct.dpx::IndustryHeader" = type { [2 x i8], [2 x i8], [2 x i8], [6 x i8], [4 x i8], [32 x i8], i32, i32, i32, float, float, [32 x i8], [100 x i8], [56 x i8], i32, i32, i8, i8, i8, i8, float, float, float, float, float, float, float, float, float, float, [76 x i8] }

@_ZTVN3dpx6WriterE = hidden unnamed_addr constant { [4 x ptr] } { [4 x ptr] [ptr null, ptr @_ZTIN3dpx6WriterE, ptr @_ZN3dpx6WriterD1Ev, ptr @_ZN3dpx6WriterD0Ev] }, align 8

; Function Attrs: mustprogress uwtable
define hidden void @_ZN3dpx6WriterC2Ev(ptr noundef nonnull align 8 dereferenceable(2080) %this) unnamed_addr #6 align 2 {
entry:
  %this.addr = alloca ptr, align 8
  store ptr %this, ptr %this.addr, align 8
  %this1 = load ptr, ptr %this.addr, align 8
  store ptr getelementptr inbounds ({ [4 x ptr] }, ptr @_ZTVN3dpx6WriterE, i32 0, i32 0, i32 2), ptr %this1, align 8
  %header = getelementptr inbounds %"class.dpx::Writer", ptr %this1, i32 0, i32 1
  call void @_ZN3dpx6HeaderC1Ev(ptr noundef nonnull align 4 dereferenceable(2049) %header)
  %fileLoc = getelementptr inbounds %"class.dpx::Writer", ptr %this1, i32 0, i32 2
  store i64 0, ptr %fileLoc, align 8
  ret void
}